target datalayout = "e-m:e-p270:32:32-p271:32:32-p272:64:64-i64:64-i128:128-f80:128-n8:16:32:64-S128"
target triple = "x86_64-pc-linux-gnu"

; Function Attrs: nounwind uwtable
define i64 @curl_getdate(ptr noundef %0, ptr noundef %1) #0 {
  %3 = alloca i64, align 8
  %4 = alloca ptr, align 8
  %5 = alloca ptr, align 8
  %6 = alloca i64, align 8
  %7 = alloca i32, align 4
  %8 = alloca i32, align 4
  store ptr %0, ptr %4, align 8, !tbaa !3
  store ptr %1, ptr %5, align 8, !tbaa !8
  call void @llvm.lifetime.start.p0(i64 8, ptr %6) #6
  store i64 -1, ptr %6, align 8, !tbaa !10
  call void @llvm.lifetime.start.p0(i64 4, ptr %7) #6
  %9 = load ptr, ptr %4, align 8, !tbaa !3
  %10 = call i32 @parsedate(ptr noundef %9, ptr noundef %6)
  store i32 %10, ptr %7, align 4, !tbaa !12
  %11 = load i32, ptr %7, align 4, !tbaa !12
  %12 = icmp eq i32 %11, 0
  br i1 %12, label %13, label %21

13:                                               ; preds = %2
  %14 = load i64, ptr %6, align 8, !tbaa !10
  %15 = icmp eq i64 %14, -1
  br i1 %15, label %16, label %19

16:                                               ; preds = %13
  %17 = load i64, ptr %6, align 8, !tbaa !10
  %18 = add nsw i64 %17, 1
  store i64 %18, ptr %6, align 8, !tbaa !10
  br label %19

19:                                               ; preds = %16, %13
  %20 = load i64, ptr %6, align 8, !tbaa !10
  store i64 %20, ptr %3, align 8
  store i32 1, ptr %8, align 4
  br label %22

21:                                               ; preds = %2
  store i64 -1, ptr %3, align 8
  store i32 1, ptr %8, align 4
  br label %22

22:                                               ; preds = %21, %19
  call void @llvm.lifetime.end.p0(i64 4, ptr %7) #6
  call void @llvm.lifetime.end.p0(i64 8, ptr %6) #6
  %23 = load i64, ptr %3, align 8
  ret i64 %23
}